target datalayout = "e-m:e-p270:32:32-p271:32:32-p272:64:64-i64:64-i128:128-f80:128-n8:16:32:64-S128"
target triple = "x86_64-pc-linux-gnu"

%struct.aclSelector = type { i32, [16 x i64], ptr, ptr, ptr, ptr }

; Function Attrs: nounwind uwtable
define dso_local void @ACLResetFirstArgsForCommand(ptr noundef %0, i64 noundef %1) #0 {
  %3 = alloca ptr, align 8
  %4 = alloca i64, align 8
  %5 = alloca i32, align 4
  store ptr %0, ptr %3, align 8, !tbaa !32
  store i64 %1, ptr %4, align 8, !tbaa !10
  %6 = load ptr, ptr %3, align 8, !tbaa !32
  %7 = getelementptr inbounds nuw %struct.aclSelector, ptr %6, i32 0, i32 2
  %8 = load ptr, ptr %7, align 8, !tbaa !69
  %9 = icmp ne ptr %8, null
  br i1 %9, label %10, label %58

10:                                               ; preds = %2
  %11 = load ptr, ptr %3, align 8, !tbaa !32
  %12 = getelementptr inbounds nuw %struct.aclSelector, ptr %11, i32 0, i32 2
  %13 = load ptr, ptr %12, align 8, !tbaa !69
  %14 = load i64, ptr %4, align 8, !tbaa !10
  %15 = getelementptr inbounds nuw ptr, ptr %13, i64 %14
  %16 = load ptr, ptr %15, align 8, !tbaa !33
  %17 = icmp ne ptr %16, null
  br i1 %17, label %18, label %58

18:                                               ; preds = %10
  call void @llvm.lifetime.start.p0(i64 4, ptr %5) #14
  store i32 0, ptr %5, align 4, !tbaa !17
  br label %19

19:                                               ; preds = %43, %18
  %20 = load ptr, ptr %3, align 8, !tbaa !32
  %21 = getelementptr inbounds nuw %struct.aclSelector, ptr %20, i32 0, i32 2
  %22 = load ptr, ptr %21, align 8, !tbaa !69
  %23 = load i64, ptr %4, align 8, !tbaa !10
  %24 = getelementptr inbounds nuw ptr, ptr %22, i64 %23
  %25 = load ptr, ptr %24, align 8, !tbaa !33
  %26 = load i32, ptr %5, align 4, !tbaa !17
  %27 = sext i32 %26 to i64
  %28 = getelementptr inbounds ptr, ptr %25, i64 %27
  %29 = load ptr, ptr %28, align 8, !tbaa !5
  %30 = icmp ne ptr %29, null
  br i1 %30, label %32, label %31

31:                                               ; preds = %19
  call void @llvm.lifetime.end.p0(i64 4, ptr %5) #14
  br label %46

32:                                               ; preds = %19
  %33 = load ptr, ptr %3, align 8, !tbaa !32
  %34 = getelementptr inbounds nuw %struct.aclSelector, ptr %33, i32 0, i32 2
  %35 = load ptr, ptr %34, align 8, !tbaa !69
  %36 = load i64, ptr %4, align 8, !tbaa !10
  %37 = getelementptr inbounds nuw ptr, ptr %35, i64 %36
  %38 = load ptr, ptr %37, align 8, !tbaa !33
  %39 = load i32, ptr %5, align 4, !tbaa !17
  %40 = sext i32 %39 to i64
  %41 = getelementptr inbounds ptr, ptr %38, i64 %40
  %42 = load ptr, ptr %41, align 8, !tbaa !5
  call void @sdsfree(ptr noundef %42)
  br label %43

43:                                               ; preds = %32
  %44 = load i32, ptr %5, align 4, !tbaa !17
  %45 = add nsw i32 %44, 1
  store i32 %45, ptr %5, align 4, !tbaa !17
  br label %19, !llvm.loop !120

46:                                               ; preds = %31
  %47 = load ptr, ptr %3, align 8, !tbaa !32
  %48 = getelementptr inbounds nuw %struct.aclSelector, ptr %47, i32 0, i32 2
  %49 = load ptr, ptr %48, align 8, !tbaa !69
  %50 = load i64, ptr %4, align 8, !tbaa !10
  %51 = getelementptr inbounds nuw ptr, ptr %49, i64 %50
  %52 = load ptr, ptr %51, align 8, !tbaa !33
  call void @zfree(ptr noundef %52)
  %53 = load ptr, ptr %3, align 8, !tbaa !32
  %54 = getelementptr inbounds nuw %struct.aclSelector, ptr %53, i32 0, i32 2
  %55 = load ptr, ptr %54, align 8, !tbaa !69
  %56 = load i64, ptr %4, align 8, !tbaa !10
  %57 = getelementptr inbounds nuw ptr, ptr %55, i64 %56
  store ptr null, ptr %57, align 8, !tbaa !33
  br label %58

58:                                               ; preds = %46, %10, %2
  ret void
}