; Function Attrs: nounwind uwtable
define dso_local void @ACLResetFirstArgsForCommand(ptr noundef readonly captures(none) %0, i64 noundef %1) local_unnamed_addr #0 {
  %3 = getelementptr inbounds nuw i8, ptr %0, i64 136
  %4 = load ptr, ptr %3, align 8, !tbaa !66
  %.not = icmp eq ptr %4, null
  br i1 %.not, label %17, label %5

5:                                                ; preds = %2
  %6 = getelementptr inbounds nuw ptr, ptr %4, i64 %1
  %7 = load ptr, ptr %6, align 8, !tbaa !73
  %.not15 = icmp eq ptr %7, null
  br i1 %.not15, label %17, label %.preheader

.preheader:                                       ; preds = %5
  %8 = load ptr, ptr %7, align 8, !tbaa !29
  %.not1617 = icmp eq ptr %8, null
  br i1 %.not1617, label %._crit_edge, label %.lr.ph

._crit_edge:                                      ; preds = %.lr.ph, %.preheader
  %.lcssa = phi ptr [ %7, %.preheader ], [ %14, %.lr.ph ]
  tail call void @zfree(ptr noundef nonnull %.lcssa) #25
  %9 = load ptr, ptr %3, align 8, !tbaa !66
  %10 = getelementptr inbounds nuw ptr, ptr %9, i64 %1
  store ptr null, ptr %10, align 8, !tbaa !73
  br label %17

.lr.ph:                                           ; preds = %.preheader, %.lr.ph
  %indvars.iv = phi i64 [ %indvars.iv.next, %.lr.ph ], [ 0, %.preheader ]
  %11 = phi ptr [ %16, %.lr.ph ], [ %8, %.preheader ]
  tail call void @sdsfree(ptr noundef nonnull %11) #25
  %indvars.iv.next = add nuw nsw i64 %indvars.iv, 1
  %12 = load ptr, ptr %3, align 8, !tbaa !66
  %13 = getelementptr inbounds nuw ptr, ptr %12, i64 %1
  %14 = load ptr, ptr %13, align 8, !tbaa !73
  %15 = getelementptr inbounds nuw ptr, ptr %14, i64 %indvars.iv.next
  %16 = load ptr, ptr %15, align 8, !tbaa !29
  %.not16 = icmp eq ptr %16, null
  br i1 %.not16, label %._crit_edge, label %.lr.ph, !llvm.loop !110

17:                                               ; preds = %._crit_edge, %5, %2
  ret void
}